; Function Attrs: nounwind sspstrong uwtable
define dso_local i64 @rb_io_buffer_transfer(i64 noundef %0) #0 {
  %2 = tail call ptr @rb_check_typeddata(i64 noundef %0, ptr noundef nonnull @rb_io_buffer_type) #25
  %3 = getelementptr inbounds nuw i8, ptr %2, i64 16
  %4 = load i32, ptr %3, align 8, !tbaa !15
  %5 = and i32 %4, 32
  %.not = icmp eq i32 %5, 0
  br i1 %.not, label %8, label %6

6:                                                ; preds = %1
  %7 = load i64, ptr @rb_eIOBufferLockedError, align 8, !tbaa !22
  tail call void (i64, ptr, ...) @rb_raise(i64 noundef %7, ptr noundef nonnull @.str.17) #26
  unreachable

8:                                                ; preds = %1
  %9 = icmp eq i64 %0, 0
  %10 = and i64 %0, 7
  %11 = icmp ne i64 %10, 0
  %12 = or i1 %9, %11
  br i1 %12, label %16, label %13

13:                                               ; preds = %8
  %14 = inttoptr i64 %0 to ptr
  %15 = getelementptr inbounds nuw i8, ptr %14, i64 8
  br label %rb_class_of.exit

16:                                               ; preds = %8
  switch i64 %0, label %19 [
    i64 0, label %rb_class_of.exit
    i64 4, label %17
    i64 20, label %18
  ]

17:                                               ; preds = %16
  br label %rb_class_of.exit

18:                                               ; preds = %16
  br label %rb_class_of.exit

19:                                               ; preds = %16
  %20 = and i64 %0, 1
  %.not.i = icmp eq i64 %20, 0
  br i1 %.not.i, label %21, label %rb_class_of.exit

21:                                               ; preds = %19
  %22 = and i64 %0, 254
  %23 = icmp eq i64 %22, 12
  %spec.select.i = select i1 %23, ptr @rb_cSymbol, ptr @rb_cFloat
  br label %rb_class_of.exit

rb_class_of.exit:                                 ; preds = %13, %16, %17, %18, %19, %21
  %.0.in.i = phi ptr [ @rb_cNilClass, %17 ], [ @rb_cTrueClass, %18 ], [ %15, %13 ], [ @rb_cFalseClass, %16 ], [ @rb_cInteger, %19 ], [ %spec.select.i, %21 ]
  %.0.i = load i64, ptr %.0.in.i, align 8, !tbaa !22
  %24 = tail call i64 @rb_data_typed_object_zalloc(i64 noundef %.0.i, i64 noundef 32, ptr noundef nonnull @rb_io_buffer_type) #25
  %25 = inttoptr i64 %24 to ptr
  %26 = getelementptr inbounds nuw i8, ptr %25, i64 24
  %27 = load i64, ptr %26, align 8, !tbaa !17
  %28 = and i64 %27, 2
  %.not.i.i = icmp eq i64 %28, 0
  %29 = getelementptr i8, ptr %25, i64 32
  br i1 %.not.i.i, label %30, label %rb_io_buffer_type_allocate.exit

30:                                               ; preds = %rb_class_of.exit
  %31 = load ptr, ptr %29, align 8, !tbaa !21
  br label %rb_io_buffer_type_allocate.exit

rb_io_buffer_type_allocate.exit:                  ; preds = %rb_class_of.exit, %30
  %32 = phi ptr [ %31, %30 ], [ %29, %rb_class_of.exit ]
  %33 = getelementptr inbounds nuw i8, ptr %32, i64 24
  tail call void @llvm.memset.p0.i64(ptr noundef nonnull align 8 dereferenceable(16) %32, i8 0, i64 16, i1 false)
  store i64 4, ptr %33, align 8, !tbaa !7
  %34 = tail call ptr @rb_check_typeddata(i64 noundef %24, ptr noundef nonnull @rb_io_buffer_type) #25
  tail call void @llvm.memcpy.p0.p0.i64(ptr noundef nonnull align 8 dereferenceable(32) %34, ptr noundef nonnull align 8 dereferenceable(32) %2, i64 32, i1 false), !tbaa.struct !44
  %35 = getelementptr inbounds nuw i8, ptr %2, i64 24
  tail call void @llvm.memset.p0.i64(ptr noundef nonnull align 8 dereferenceable(16) %2, i8 0, i64 16, i1 false)
  store i64 4, ptr %35, align 8, !tbaa !7
  ret i64 %24
}